target datalayout = "e-m:e-p270:32:32-p271:32:32-p272:64:64-i64:64-i128:128-f80:128-n8:16:32:64-S128"
target triple = "x86_64-unknown-linux-gnu"

%"class.std::__cxx11::basic_string" = type { %"struct.std::__cxx11::basic_string<char>::_Alloc_hider", i64, %union.anon }
%"struct.std::__cxx11::basic_string<char>::_Alloc_hider" = type { ptr }
%union.anon = type { i64, [8 x i8] }
%"class.pstd::pmr::polymorphic_allocator.52" = type { ptr }
%"class.pbrt::GPUSpectrumPtexTexture" = type { i32, %"class.pstd::vector.51" }
%"class.pstd::vector.51" = type { %"class.pstd::pmr::polymorphic_allocator.52", ptr, i64, i64 }

@.str.94 = private unnamed_addr constant [59 x i8] c"[ GPUSpectrumPtexTexture spectrumType: %s faceValues: %s ]\00", align 1

; Function Attrs: mustprogress uwtable
define linkonce_odr dso_local void @_ZN4pbrt12StringPrintfIJRKNS_12SpectrumTypeERKN4pstd6vectorINS_3RGBENS4_3pmr21polymorphic_allocatorIS6_EEEEEEENSt7__cxx1112basic_stringIcSt11char_traitsIcESaIcEEEPKcDpOT_(ptr noalias sret(%"class.std::__cxx11::basic_string") align 8 %agg.result, ptr noundef %fmt, ptr noundef nonnull align 4 dereferenceable(4) %args, ptr noundef nonnull align 8 dereferenceable(32) %args1) #1 comdat personality ptr @__gxx_personality_v0 {
entry:
  %result.ptr = alloca ptr, align 8
  %fmt.addr = alloca ptr, align 8
  %args.addr = alloca ptr, align 8
  %args.addr2 = alloca ptr, align 8
  %nrvo = alloca i1, align 1
  %exn.slot = alloca ptr, align 8
  %ehselector.slot = alloca i32, align 4
  store ptr %agg.result, ptr %result.ptr, align 8
  store ptr %fmt, ptr %fmt.addr, align 8
  store ptr %args, ptr %args.addr, align 8
  store ptr %args1, ptr %args.addr2, align 8
  store i1 false, ptr %nrvo, align 1
  call void @_ZNSt7__cxx1112basic_stringIcSt11char_traitsIcESaIcEEC1Ev(ptr noundef nonnull align 8 dereferenceable(32) %agg.result) #9
  %0 = load ptr, ptr %fmt.addr, align 8
  %1 = load ptr, ptr %args.addr, align 8
  %2 = load ptr, ptr %args.addr2, align 8
  invoke void @_ZN4pbrt6detail21stringPrintfRecursiveIRKNS_12SpectrumTypeEJRKN4pstd6vectorINS_3RGBENS5_3pmr21polymorphic_allocatorIS7_EEEEEEEvPNSt7__cxx1112basic_stringIcSt11char_traitsIcESaIcEEEPKcOT_DpOT0_(ptr noundef %agg.result, ptr noundef %0, ptr noundef nonnull align 4 dereferenceable(4) %1, ptr noundef nonnull align 8 dereferenceable(32) %2)
          to label %invoke.cont unwind label %lpad

invoke.cont:                                      ; preds = %entry
  store i1 true, ptr %nrvo, align 1
  %nrvo.val = load i1, ptr %nrvo, align 1
  br i1 %nrvo.val, label %nrvo.skipdtor, label %nrvo.unused

lpad:                                             ; preds = %entry
  %3 = landingpad { ptr, i32 }
          cleanup
  %4 = extractvalue { ptr, i32 } %3, 0
  store ptr %4, ptr %exn.slot, align 8
  %5 = extractvalue { ptr, i32 } %3, 1
  store i32 %5, ptr %ehselector.slot, align 4
  call void @_ZNSt7__cxx1112basic_stringIcSt11char_traitsIcESaIcEED1Ev(ptr noundef nonnull align 8 dereferenceable(32) %agg.result) #9
  br label %eh.resume

nrvo.unused:                                      ; preds = %invoke.cont
  call void @_ZNSt7__cxx1112basic_stringIcSt11char_traitsIcESaIcEED1Ev(ptr noundef nonnull align 8 dereferenceable(32) %agg.result) #9
  br label %nrvo.skipdtor

nrvo.skipdtor:                                    ; preds = %nrvo.unused, %invoke.cont
  ret void

eh.resume:                                        ; preds = %lpad
  %exn = load ptr, ptr %exn.slot, align 8
  %sel = load i32, ptr %ehselector.slot, align 4
  %lpad.val = insertvalue { ptr, i32 } poison, ptr %exn, 0
  %lpad.val3 = insertvalue { ptr, i32 } %lpad.val, i32 %sel, 1
  resume { ptr, i32 } %lpad.val3
}

; Function Attrs: mustprogress uwtable
define dso_local void @_ZNK4pbrt22GPUSpectrumPtexTexture8ToStringB5cxx11Ev(ptr noalias sret(%"class.std::__cxx11::basic_string") align 8 %agg.result, ptr noundef nonnull align 8 dereferenceable(40) %this) #1 align 2 {
entry:
  %result.ptr = alloca ptr, align 8
  %this.addr = alloca ptr, align 8
  store ptr %agg.result, ptr %result.ptr, align 8
  store ptr %this, ptr %this.addr, align 8
  %this1 = load ptr, ptr %this.addr, align 8
  %spectrumType = getelementptr inbounds %"class.pbrt::GPUSpectrumPtexTexture", ptr %this1, i32 0, i32 0
  %faceValues = getelementptr inbounds %"class.pbrt::GPUSpectrumPtexTexture", ptr %this1, i32 0, i32 1
  call void @_ZN4pbrt12StringPrintfIJRKNS_12SpectrumTypeERKN4pstd6vectorINS_3RGBENS4_3pmr21polymorphic_allocatorIS6_EEEEEEENSt7__cxx1112basic_stringIcSt11char_traitsIcESaIcEEEPKcDpOT_(ptr sret(%"class.std::__cxx11::basic_string") align 8 %agg.result, ptr noundef @.str.94, ptr noundef nonnull align 4 dereferenceable(4) %spectrumType, ptr noundef nonnull align 8 dereferenceable(32) %faceValues)
  ret void
}