; Function Attrs: mustprogress uwtable
define dso_local void @_ZNK4pbrt22GPUSpectrumPtexTexture8ToStringB5cxx11Ev(ptr noalias nonnull sret(%"class.std::__cxx11::basic_string") align 8 %agg.result, ptr noundef nonnull align 8 dereferenceable(40) %this) local_unnamed_addr #0 align 2 personality ptr @__gxx_personality_v0 {
entry:
  %faceValues = getelementptr inbounds i8, ptr %this, i64 8
  tail call void @_ZNSt7__cxx1112basic_stringIcSt11char_traitsIcESaIcEEC1Ev(ptr noundef nonnull align 8 dereferenceable(32) %agg.result) #23
  invoke void @_ZN4pbrt6detail21stringPrintfRecursiveIRKNS_12SpectrumTypeEJRKN4pstd6vectorINS_3RGBENS5_3pmr21polymorphic_allocatorIS7_EEEEEEEvPNSt7__cxx1112basic_stringIcSt11char_traitsIcESaIcEEEPKcOT_DpOT0_(ptr noundef nonnull %agg.result, ptr noundef nonnull @.str.94, ptr noundef nonnull align 4 dereferenceable(4) %this, ptr noundef nonnull align 8 dereferenceable(32) %faceValues)
          to label %_ZN4pbrt12StringPrintfIJRKNS_12SpectrumTypeERKN4pstd6vectorINS_3RGBENS4_3pmr21polymorphic_allocatorIS6_EEEEEEENSt7__cxx1112basic_stringIcSt11char_traitsIcESaIcEEEPKcDpOT_.exit unwind label %lpad.i

lpad.i:                                           ; preds = %entry
  %0 = landingpad { ptr, i32 }
          cleanup
  tail call void @_ZNSt7__cxx1112basic_stringIcSt11char_traitsIcESaIcEED1Ev(ptr noundef nonnull align 8 dereferenceable(32) %agg.result) #23
  resume { ptr, i32 } %0

_ZN4pbrt12StringPrintfIJRKNS_12SpectrumTypeERKN4pstd6vectorINS_3RGBENS4_3pmr21polymorphic_allocatorIS6_EEEEEEENSt7__cxx1112basic_stringIcSt11char_traitsIcESaIcEEEPKcDpOT_.exit: ; preds = %entry
  ret void
}